target datalayout = "e-m:e-p270:32:32-p271:32:32-p272:64:64-i64:64-i128:128-f80:128-n8:16:32:64-S128"
target triple = "x86_64-pc-linux-gnu"

%struct.b2WorldId = type { i16, i16 }
%struct.b2JointId = type { i32, i16, i16 }
%struct.b2BodyId = type { i32, i16, i16 }
%struct.b2Profile = type { float, float, float, float, float, float, float, float, float, float, float, float, float, float, float, float, float, float, float, float, float, float }
%class.Sample = type { ptr, ptr, ptr, ptr, i32, i32, %struct.b2BodyId, i32, %struct.b2WorldId, %struct.b2JointId, i32, i32, %struct.b2Profile, %struct.b2Profile }

; Function Attrs: mustprogress nounwind uwtable
define dso_local void @_ZN6Sample12ResetProfileEv(ptr noundef nonnull align 8 dereferenceable(248) %0) #7 align 2 {
  %2 = alloca ptr, align 8
  %3 = alloca %struct.b2Profile, align 4
  %4 = alloca %struct.b2Profile, align 4
  store ptr %0, ptr %2, align 8, !tbaa !15
  %5 = load ptr, ptr %2, align 8
  call void @llvm.lifetime.start.p0(i64 88, ptr %3) #19
  call void @llvm.memset.p0.i64(ptr align 4 %3, i8 0, i64 88, i1 false)
  %6 = getelementptr inbounds nuw %class.Sample, ptr %5, i32 0, i32 13
  call void @llvm.memcpy.p0.p0.i64(ptr align 8 %6, ptr align 4 %3, i64 88, i1 false), !tbaa.struct !42
  call void @llvm.lifetime.end.p0(i64 88, ptr %3) #19
  call void @llvm.lifetime.start.p0(i64 88, ptr %4) #19
  call void @llvm.memset.p0.i64(ptr align 4 %4, i8 0, i64 88, i1 false)
  %7 = getelementptr inbounds nuw %class.Sample, ptr %5, i32 0, i32 12
  call void @llvm.memcpy.p0.p0.i64(ptr align 8 %7, ptr align 4 %4, i64 88, i1 false), !tbaa.struct !42
  call void @llvm.lifetime.end.p0(i64 88, ptr %4) #19
  %8 = getelementptr inbounds nuw %class.Sample, ptr %5, i32 0, i32 10
  store i32 0, ptr %8, align 8, !tbaa !41
  ret void
}