; Function Attrs: mustprogress nofree norecurse nosync nounwind willreturn memory(argmem: write) uwtable
define dso_local void @_ZN6Sample12ResetProfileEv(ptr noundef nonnull writeonly align 8 captures(none) dereferenceable(248) initializes((64, 68), (72, 248)) %0) local_unnamed_addr #15 align 2 {
  %2 = getelementptr inbounds nuw i8, ptr %0, i64 160
  tail call void @llvm.memset.p0.i64(ptr noundef nonnull align 8 dereferenceable(88) %2, i8 0, i64 88, i1 false)
  %3 = getelementptr inbounds nuw i8, ptr %0, i64 72
  tail call void @llvm.memset.p0.i64(ptr noundef nonnull align 8 dereferenceable(88) %3, i8 0, i64 88, i1 false)
  %4 = getelementptr inbounds nuw i8, ptr %0, i64 64
  store i32 0, ptr %4, align 8, !tbaa !44
  ret void
}